(dp0
S'king'
p1
(dp2
S'disk_quota'
p3
S'1GB'
p4
sS'password'
p5
S'c20ad4d76fe97759aa27a0c99bff6710'
p6
sS'home_dir'
p7
S'/var/ftp/pub/king'
p8
ssS',zhuo'
p9
(dp10
S'disk_quota'
p11
S'1G'
p12
sS'password'
p13
S'c20ad4d76fe97759aa27a0c99bff6710'
p14
sS'home_dir'
p15
S'/var/ftp/pub/zhuo'
p16
ssS'wang'
p17
(dp18
S'disk_quota'
p19
S'1G'
p20
sS'password'
p21
S'c20ad4d76fe97759aa27a0c99bff6710'
p22
sS'home_dir'
p23
S'/var/ftp/pub/wang'
p24
ssS',gdut'
p25
(dp26
S'disk_quota'
p27
S'1G'
p28
sS'password'
p29
S'c20ad4d76fe97759aa27a0c99bff6710'
p30
sS'home_dir'
p31
S'/var/ftp/pub/gdut'
p32
ssS'jin'
p33
(dp34
S'disk_quota'
p35
S'1MB'
p36
sS'password'
p37
S'c20ad4d76fe97759aa27a0c99bff6710'
p38
sS'home_dir'
p39
S'/var/ftp/pub/jin'
p40
ssS'tt'
p41
(dp42
S'disk_quota'
p43
S'3G'
p44
sS'password'
p45
S'c20ad4d76fe97759aa27a0c99bff6710'
p46
sS'home_dir'
p47
S'/var/ftp/pub/testtt'
p48
ssS',yue'
p49
(dp50
S'disk_quota'
p51
S'1G'
p52
sS'password'
p53
S'c20ad4d76fe97759aa27a0c99bff6710'
p54
sS'home_dir'
p55
S'/var/ftp/pub/yue'
p56
ssS'admin'
p57
(dp58
S'disk_quota'
p59
S'1G'
p60
sS'password'
p61
S'21232f297a57a5a743894a0e4a801fc3'
p62
sS'home_dir'
p63
S'/var/ftp/pub/admin'
p64
ss.